target datalayout = "e-m:e-p270:32:32-p271:32:32-p272:64:64-i64:64-i128:128-f80:128-n8:16:32:64-S128"
target triple = "x86_64-pc-linux-gnu"

%struct.archive_write = type { %struct.archive, i32, i64, i64, ptr, i64, ptr, ptr, ptr, ptr, ptr, i32, i32, ptr, ptr, ptr, ptr, ptr, ptr, ptr, ptr, ptr, ptr, ptr, ptr, ptr, ptr }
%struct.archive = type { i32, i32, ptr, i32, ptr, i32, i32, ptr, %struct.archive_string, ptr, i32, i32, ptr, ptr, i64, i64, i64, i8, i64 }
%struct.archive_string = type { ptr, i64, i64 }
%struct.cpio = type { i64, i64, ptr, i64, i64, ptr, ptr, i32 }

@.str.6 = private unnamed_addr constant [11 x i8] c"hdrcharset\00", align 1
@.str.7 = private unnamed_addr constant [49 x i8] c"%s: hdrcharset option needs a character-set name\00", align 1

; Function Attrs: nounwind uwtable
define internal i32 @archive_write_binary_options(ptr noundef %0, ptr noundef %1, ptr noundef %2) #0 {
  %4 = alloca i32, align 4
  %5 = alloca ptr, align 8
  %6 = alloca ptr, align 8
  %7 = alloca ptr, align 8
  %8 = alloca ptr, align 8
  %9 = alloca i32, align 4
  store ptr %0, ptr %5, align 8
  store ptr %1, ptr %6, align 8
  store ptr %2, ptr %7, align 8
  %10 = load ptr, ptr %5, align 8
  %11 = getelementptr inbounds %struct.archive_write, ptr %10, i32 0, i32 15
  %12 = load ptr, ptr %11, align 8
  store ptr %12, ptr %8, align 8
  store i32 -25, ptr %9, align 4
  %13 = load ptr, ptr %6, align 8
  %14 = call i32 @strcmp(ptr noundef %13, ptr noundef @.str.6) #8
  %15 = icmp eq i32 %14, 0
  br i1 %15, label %16, label %47

16:                                               ; preds = %3
  %17 = load ptr, ptr %7, align 8
  %18 = icmp eq ptr %17, null
  br i1 %18, label %25, label %19

19:                                               ; preds = %16
  %20 = load ptr, ptr %7, align 8
  %21 = getelementptr inbounds i8, ptr %20, i64 0
  %22 = load i8, ptr %21, align 1
  %23 = sext i8 %22 to i32
  %24 = icmp eq i32 %23, 0
  br i1 %24, label %25, label %31

25:                                               ; preds = %19, %16
  %26 = load ptr, ptr %5, align 8
  %27 = getelementptr inbounds %struct.archive_write, ptr %26, i32 0, i32 0
  %28 = load ptr, ptr %5, align 8
  %29 = getelementptr inbounds %struct.archive_write, ptr %28, i32 0, i32 16
  %30 = load ptr, ptr %29, align 8
  call void (ptr, i32, ptr, ...) @archive_set_error(ptr noundef %27, i32 noundef -1, ptr noundef @.str.7, ptr noundef %30)
  br label %45

31:                                               ; preds = %19
  %32 = load ptr, ptr %5, align 8
  %33 = getelementptr inbounds %struct.archive_write, ptr %32, i32 0, i32 0
  %34 = load ptr, ptr %7, align 8
  %35 = call ptr @archive_string_conversion_to_charset(ptr noundef %33, ptr noundef %34, i32 noundef 0)
  %36 = load ptr, ptr %8, align 8
  %37 = getelementptr inbounds %struct.cpio, ptr %36, i32 0, i32 5
  store ptr %35, ptr %37, align 8
  %38 = load ptr, ptr %8, align 8
  %39 = getelementptr inbounds %struct.cpio, ptr %38, i32 0, i32 5
  %40 = load ptr, ptr %39, align 8
  %41 = icmp ne ptr %40, null
  br i1 %41, label %42, label %43

42:                                               ; preds = %31
  store i32 0, ptr %9, align 4
  br label %44

43:                                               ; preds = %31
  store i32 -30, ptr %9, align 4
  br label %44

44:                                               ; preds = %43, %42
  br label %45

45:                                               ; preds = %44, %25
  %46 = load i32, ptr %9, align 4
  store i32 %46, ptr %4, align 4
  br label %48

47:                                               ; preds = %3
  store i32 -20, ptr %4, align 4
  br label %48

48:                                               ; preds = %47, %45
  %49 = load i32, ptr %4, align 4
  ret i32 %49
}