; Function Attrs: nounwind uwtable
define internal range(i32 -30, 1) i32 @archive_write_binary_options(ptr noundef %0, ptr noundef readonly captures(none) %1, ptr noundef %2) #0 {
  %4 = getelementptr inbounds nuw i8, ptr %0, i64 248
  %5 = load ptr, ptr %4, align 8
  %6 = tail call i32 @strcmp(ptr noundef nonnull dereferenceable(1) %1, ptr noundef nonnull dereferenceable(11) @.str.6) #11
  %7 = icmp eq i32 %6, 0
  br i1 %7, label %8, label %19

8:                                                ; preds = %3
  %9 = icmp eq ptr %2, null
  br i1 %9, label %13, label %10

10:                                               ; preds = %8
  %11 = load i8, ptr %2, align 1
  %12 = icmp eq i8 %11, 0
  br i1 %12, label %13, label %16

13:                                               ; preds = %10, %8
  %14 = getelementptr inbounds nuw i8, ptr %0, i64 256
  %15 = load ptr, ptr %14, align 8
  tail call void (ptr, i32, ptr, ...) @archive_set_error(ptr noundef nonnull %0, i32 noundef -1, ptr noundef nonnull @.str.7, ptr noundef %15) #9
  br label %19

16:                                               ; preds = %10
  %17 = tail call ptr @archive_string_conversion_to_charset(ptr noundef nonnull %0, ptr noundef nonnull %2, i32 noundef 0) #9
  %18 = getelementptr inbounds nuw i8, ptr %5, i64 40
  store ptr %17, ptr %18, align 8
  %.not = icmp eq ptr %17, null
  %. = select i1 %.not, i32 -30, i32 0
  br label %19

19:                                               ; preds = %3, %13, %16
  %.011 = phi i32 [ -25, %13 ], [ %., %16 ], [ -20, %3 ]
  ret i32 %.011
}